; Function Attrs: mustprogress nofree norecurse nosync nounwind willreturn memory(read, inaccessiblemem: none) uwtable
define noundef i32 @_ZN7glslang13TIntermediate15checkLocationRTEii(ptr nocapture noundef nonnull readonly align 8 dereferenceable(2024) %0, i32 noundef %1, i32 noundef %2) local_unnamed_addr #4 align 2 {
  %4 = getelementptr inbounds i8, ptr %0, i64 1744
  %5 = sext i32 %1 to i64
  %6 = getelementptr inbounds [4 x %"class.std::vector.82"], ptr %4, i64 0, i64 %5
  %7 = getelementptr inbounds i8, ptr %6, i64 8
  %8 = load ptr, ptr %7, align 8
  %9 = load ptr, ptr %6, align 8
  %.not = icmp eq ptr %8, %9
  br i1 %.not, label %._crit_edge, label %.lr.ph.preheader

.lr.ph.preheader:                                 ; preds = %3
  %10 = ptrtoint ptr %8 to i64
  %11 = ptrtoint ptr %9 to i64
  %12 = sub i64 %10, %11
  %13 = ashr exact i64 %12, 3
  %umax = tail call i64 @llvm.umax.i64(i64 %13, i64 1)
  br label %.lr.ph

14:                                               ; preds = %.lr.ph
  %15 = add nuw i64 %.010, 1
  %exitcond.not = icmp eq i64 %15, %umax
  br i1 %exitcond.not, label %._crit_edge, label %.lr.ph, !llvm.loop !196

.lr.ph:                                           ; preds = %.lr.ph.preheader, %14
  %.010 = phi i64 [ %15, %14 ], [ 0, %.lr.ph.preheader ]
  %16 = getelementptr inbounds %"struct.glslang::TRange", ptr %9, i64 %.010
  %17 = load i32, ptr %16, align 4
  %.not.i = icmp sle i32 %17, %2
  %18 = getelementptr inbounds i8, ptr %16, i64 4
  %19 = load i32, ptr %18, align 4
  %20 = icmp sge i32 %19, %2
  %21 = select i1 %.not.i, i1 %20, i1 false
  br i1 %21, label %._crit_edge, label %14

._crit_edge:                                      ; preds = %14, %.lr.ph, %3
  %.08 = phi i32 [ -1, %3 ], [ %2, %.lr.ph ], [ -1, %14 ]
  ret i32 %.08
}